ccollections
defaultdict
p0
(c__builtin__
list
p1
tp2
Rp3
cnumpy.core.multiarray
scalar
p4
(cnumpy
dtype
p5
(S'S6'
p6
I0
I1
tp7
Rp8
(I3
S'|'
p9
NNNI6
I1
I0
tp10
bS'Pose_1'
p11
tp12
Rp13
g0
(g1
tp14
Rp15
g4
(g5
(S'S9'
p16
I0
I1
tp17
Rp18
(I3
S'|'
p19
NNNI9
I1
I0
tp20
bS'imu_link6'
p21
tp22
Rp23
cnumpy.core.multiarray
_reconstruct
p24
(cnumpy
ndarray
p25
(I0
tp26
S'b'
p27
tp28
Rp29
(I1
(I3
tp30
g5
(S'f8'
p31
I0
I1
tp32
Rp33
(I3
S'<'
p34
NNNI-1
I-1
I0
tp35
bI00
S'\xa7\xa8@a\x0eW\xec\xbf\xe5<\x9a\xb0m\x88\x80\xbf\xb6\x14\xfb\xd3\x16\x89\xa5?'
p36
tp37
bsg4
(g5
(S'S9'
p38
I0
I1
tp39
Rp40
(I3
S'|'
p41
NNNI9
I1
I0
tp42
bS'imu_link5'
p43
tp44
Rp45
g24
(g25
(I0
tp46
g27
tp47
Rp48
(I1
(I3
tp49
g33
I00
S'\nvMD\x17\xe4\xeb\xbfT\xa56\xd5\x95\xa1\x82\xbf\xf5\xc1e\xcbH\xd6\xc0\xbf'
p50
tp51
bsg4
(g5
(S'S9'
p52
I0
I1
tp53
Rp54
(I3
S'|'
p55
NNNI9
I1
I0
tp56
bS'imu_link4'
p57
tp58
Rp59
g24
(g25
(I0
tp60
g27
tp61
Rp62
(I1
(I3
tp63
g33
I00
S'\x1d\xf3\xa7c\xf5s\xe5\xbf\xf7\xbb\x00\x1c\x07\xe5\xa5?\x16+l\xfaJV\xe0\xbf'
p64
tp65
bsg4
(g5
(S'S9'
p66
I0
I1
tp67
Rp68
(I3
S'|'
p69
NNNI9
I1
I0
tp70
bS'imu_link3'
p71
tp72
Rp73
g24
(g25
(I0
tp74
g27
tp75
Rp76
(I1
(I3
tp77
g33
I00
S'\xa8%\x18L\xecl\xda?\xabL\xa9`\xef\xec\xe2?\xe7\xc48>t\x0e\xe5?'
p78
tp79
bsg4
(g5
(S'S9'
p80
I0
I1
tp81
Rp82
(I3
S'|'
p83
NNNI9
I1
I0
tp84
bS'imu_link2'
p85
tp86
Rp87
g24
(g25
(I0
tp88
g27
tp89
Rp90
(I1
(I3
tp91
g33
I00
S'\x86I\xb1]5%\xe3?u\xd9\xc6\xc4\x81\xc1\xe6\xbf\x0c\xcb\xc5\xb0\xbc\xa2\x12?'
p92
tp93
bsg4
(g5
(S'S9'
p94
I0
I1
tp95
Rp96
(I3
S'|'
p97
NNNI9
I1
I0
tp98
bS'imu_link1'
p99
tp100
Rp101
g24
(g25
(I0
tp102
g27
tp103
Rp104
(I1
(I3
tp105
g33
I00
S'\x02e\xdb\xe2\x8diK?w<z\x83\xeb\x1dV\xbf\xf7\xc4\xd5p\xb8\xca\xef?'
p106
tp107
bsg4
(g5
(S'S9'
p108
I0
I1
tp109
Rp110
(I3
S'|'
p111
NNNI9
I1
I0
tp112
bS'imu_link0'
p113
tp114
Rp115
g24
(g25
(I0
tp116
g27
tp117
Rp118
(I1
(I3
tp119
g33
I00
S',\xc3+$\xbeX\xf5>\xa8\x86\x0f.\x0e\xba\xf8\xbe\xffu\xb1\xdc\x93\xf7\xef?'
p120
tp121
bss.